ccopy_reg
_reconstructor
p0
(csklearn.linear_model.stochastic_gradient
SGDRegressor
p1
c__builtin__
object
p2
Ntp3
Rp4
(dp5
S'warm_start'
p6
I00
sS'loss'
p7
S'squared_loss'
p8
sS'C'
p9
F1.0
sS'shuffle'
p10
I00
sS'verbose'
p11
I0
sS'fit_intercept'
p12
I01
sS'epsilon'
p13
F0.1
sS'learning_rate'
p14
S'invscaling'
p15
sS'n_iter'
p16
I5
sS'penalty'
p17
S'l2'
p18
sS'power_t'
p19
F0.25
sS'random_state'
p20
NsS't_'
p21
F2.0
sS'eta0'
p22
F0.01
sS'l1_ratio'
p23
F0.15
sS'alpha'
p24
F0.0001
sS'coef_'
p25
cnumpy.core.multiarray
_reconstruct
p26
(cnumpy
ndarray
p27
(I0
tp28
S'b'
p29
tp30
Rp31
(I1
(L10L
tp32
cnumpy
dtype
p33
(S'f8'
p34
I0
I1
tp35
Rp36
(I3
S'<'
p37
NNNI-1
I-1
I0
tp38
bI00
S'\xe1z\x14\xaeG\xe1\x02@{\x14\xaeG\xe1z\x84?{\x14\xaeG\xe1z\x84?\xe2z\x14\xaeG\xe1\xda?\x00\x00\x00\x00\x00\x00\x00\x00\x00\x00\x00\x00\x00\x00\x00\x00{\x14\xaeG\xe1z\x84?{\x14\xaeG\xe1z\x84?\xc3\xf5(\\\x8f\xc2\xc5?\x9a\x99\x99\x99\x99\x99\xc9?'
p39
tp40
bsS'intercept_'
p41
g26
(g27
(I0
tp42
g29
tp43
Rp44
(I1
(L1L
tp45
g36
I00
S'{\x14\xaeG\xe1z\x84?'
p46
tp47
bsb.